(dp0
S'infomap'
p1
(lp2
F0.8605692341443264
aF0.7609240062192648
aF0.6616377215197526
aF0.5624042677490642
aF0.46232947926624457
aF0.36446580708316356
aF0.0
aF0.0
aF0.0
asS'vpas'
p3
(lp4
F0.8605692341443263
aF0.7609240062192648
aF0.6616377215197526
aF0.562404267749064
aF0.46232947926624457
aF0.36322188104111114
aF0.26905404307158326
aF0.24923131706926976
aF0.24950821831274997
asS'benckmark'
p5
(lp6
F0.8605692341443265
aF0.7609240062192646
aF0.6616377215197528
aF0.562404267749064
aF0.4623294792662445
aF0.36500025122189195
aF0.2633301394806453
aF0.16490809613328594
aF0.06146294578611811
asS'vpa'
p7
(lp8
F0.8605692341443264
aF0.7609240062192647
aF0.6616377215197528
aF0.562404267749064
aF0.4623294792662446
aF0.3650403560821051
aF0.2643806183293247
aF0.23269640661931779
aF0.2231918240783734
asS'louvain'
p9
(lp10
F0.8605692341443264
aF0.7609240062192646
aF0.6616377215197528
aF0.5627472767894999
aF0.46267982985738987
aF0.35424345766918236
aF0.25141136475311965
aF0.23096370571018562
aF0.2242919246524919
asS'lpa'
p11
(lp12
F0.8605692341443263
aF0.7609240062192646
aF0.6616377215197526
aF0.562404267749064
aF0.45908037764709453
aF0.0
aF0.0
aF0.0
aF0.0
as.