(dp0
S'random_vlpa_withoutdot'
p1
(lp2
F0.46050878363824505
aF0.36517459583800604
aF0.26811388342340436
aF0.25139780998827954
aF0.25134324897663923
asS'random_vlpa_best'
p3
(lp4
F0.4623294792662445
aF0.3637704902911136
aF0.26986246150601756
aF0.24929058106541935
aF0.24764247583858642
asS'louvain'
p5
(lp6
F0.46267982985738987
aF0.35424345766918236
aF0.25141136475311965
aF0.23096370571018562
aF0.2242919246524919
as.