(dp0
S'infomap'
p1
(lp2
F0.8605692341443264
aF0.7609240062192648
aF0.6616377215197526
aF0.5624042677490642
aF0.46232947926624457
aF0.3648062851718424
aF0.0
aF0.0
aF0.0
asS'vpas'
p3
(lp4
F0.8605692341443263
aF0.7609240062192647
aF0.6616377215197528
aF0.562404267749064
aF0.46162030604034515
aF0.36291730448916193
aF0.2676062233865869
aF0.24635450206973739
aF0.24729475283955843
asS'benckmark'
p5
(lp6
F0.8605692341443265
aF0.7609240062192646
aF0.6616377215197528
aF0.562404267749064
aF0.4623294792662445
aF0.36500025122189195
aF0.2633301394806453
aF0.16490809613328594
aF0.06146294578611811
asS'vpa'
p7
(lp8
F0.8605692341443264
aF0.7609240062192647
aF0.6616377215197526
aF0.5624042677490642
aF0.4623294792662446
aF0.3650403560821051
aF0.2636317064133924
aF0.22988742889399835
aF0.22513574046501098
asS'louvain'
p9
(lp10
F0.8605692341443264
aF0.7609240062192646
aF0.6616377215197528
aF0.5627472767894999
aF0.46267982985738987
aF0.35424345766918236
aF0.25141136475311965
aF0.23096370571018562
aF0.2242919246524919
asS'lpa'
p11
(lp12
F0.8605692341443263
aF0.7609240062192647
aF0.6616377215197528
aF0.5624042677490642
aF0.462126061125487
aF0.36489246663303176
aF0.0
aF0.0
aF0.0
as.