(dp0
S'vlpa'
p1
(lp2
F0.4623294792662447
aF0.3625114571667741
aF0.22296007211799942
aF0.1760174608685367
aF0.1619624910306953
asS'sgd_vlpa'
p3
(lp4
F0.4623294792662445
aF0.3650403560821051
aF0.26777782454871035
aF0.24189271440363055
aF0.24490369720597893
asS'louvain'
p5
(lp6
F0.46267982985738987
aF0.35424345766918236
aF0.25141136475311965
aF0.23096370571018562
aF0.2242919246524919
asS'louvain_vlpa'
p7
(lp8
F0.4623294792662447
aF0.3649330247057136
aF0.25875984047685247
aF0.2077971223708475
aF0.20789188856787982
as.