(lp0
(lp1
F0.5
aF0.6
aF0.7
aF0.8
aF0.9
aa(lp2
F0.4623294792662447
aF0.3625114571667741
aF0.22296007211799942
aF0.1760174608685367
aF0.1619624910306953
aa(lp3
F0.46167662164188566
aF0.0
aF0.0
aF0.0
aF0.0
aa(lp4
F0.46232947926624457
aF0.3646057342112195
aF0.0
aF0.0
aF0.0
aa(lp5
F0.46267982985738987
aF0.35424345766918236
aF0.25141136475311965
aF0.23096370571018562
aF0.2242919246524919
aa(lp6
F0.4623294792662445
aF0.36500025122189195
aF0.2633301394806453
aF0.16490809613328594
aF0.06146294578611811
aa.