(lp0
(lp1
F0.0
aF0.1
aF0.2
aF0.3
aF0.4
aF0.5
aF0.6
aF0.7
aF0.8
aF0.9
aa(lp2
F0.955669284003292
aF0.8605692341443264
aF0.7609240062192646
aF0.6616377215197525
aF0.562404267749064
aF0.4623294792662446
aF0.3643839800162804
aF0.15859992556475555
aF0.05266280113154579
aF0.06140833524532
aa(lp3
F0.9556692840032918
aF0.8605692341443263
aF0.7609240062192648
aF0.6616377215197525
aF0.5549193847237859
aF0.4623294792662446
aF0.0
aF0.0
aF0.0
aF0.0
aa(lp4
F0.9556692840032919
aF0.8605692341443264
aF0.7609240062192648
aF0.6616377215197526
aF0.5624042677490642
aF0.46232947926624457
aF0.3646057342112195
aF0.0
aF0.0
aF0.0
aa(lp5
F0.9556692840032918
aF0.8605692341443264
aF0.7609240062192646
aF0.6616377215197528
aF0.5627472767894999
aF0.46267982985738987
aF0.35424345766918236
aF0.25141136475311965
aF0.23096370571018562
aF0.2242919246524919
aa(lp6
F0.955669284003292
aF0.8605692341443264
aF0.7609240062192647
aF0.6616377215197526
aF0.562404267749064
aF0.4623294792662446
aF0.36500390358119783
aF0.24707846666730565
aF0.18867690599787415
aF0.18436055248711028
aa(lp7
F0.955669284003292
aF0.8605692341443264
aF0.7609240062192647
aF0.6616377215197526
aF0.562404267749064
aF0.4623294792662446
aF0.36500390358119783
aF0.24707846666730565
aF0.18867690599787415
aF0.18436055248711028
aa(lp8
F0.9556692840032918
aF0.8605692341443265
aF0.7609240062192646
aF0.6616377215197528
aF0.562404267749064
aF0.4623294792662445
aF0.36500025122189195
aF0.2633301394806453
aF0.16490809613328594
aF0.06146294578611811
aa.